; Function Attrs: mustprogress nounwind uwtable
define noundef zeroext i1 @_ZN7glslang11HlslGrammar25acceptLayoutQualifierListERNS_10TQualifierE(ptr noundef nonnull align 8 dereferenceable(360) %0, ptr noundef nonnull align 8 dereferenceable(80) %1) local_unnamed_addr #0 align 2 {
  %3 = alloca %"struct.glslang::HlslToken", align 8
  %4 = alloca ptr, align 8
  %5 = tail call noundef zeroext i1 @_ZN7glslang15HlslTokenStream16acceptTokenClassENS_15EHlslTokenClassE(ptr noundef nonnull align 8 dereferenceable(324) %0, i32 noundef 22) #16
  br i1 %5, label %6, label %38

6:                                                ; preds = %2
  %7 = tail call noundef zeroext i1 @_ZN7glslang15HlslTokenStream16acceptTokenClassENS_15EHlslTokenClassE(ptr noundef nonnull align 8 dereferenceable(324) %0, i32 noundef 355) #16
  br i1 %7, label %.preheader, label %38

.preheader:                                       ; preds = %6
  %8 = getelementptr inbounds i8, ptr %3, i64 32
  %9 = getelementptr inbounds i8, ptr %0, i64 328
  br label %10

10:                                               ; preds = %.preheader, %28
  store ptr null, ptr %8, align 8
  call void @llvm.memset.p0.i64(ptr noundef nonnull align 8 dereferenceable(20) %3, i8 0, i64 20, i1 false)
  %11 = call noundef zeroext i1 @_ZN7glslang11HlslGrammar16acceptIdentifierERNS_9HlslTokenE(ptr noundef nonnull align 8 dereferenceable(360) %0, ptr noundef nonnull align 8 dereferenceable(40) %3)
  br i1 %11, label %12, label %30

12:                                               ; preds = %10
  %13 = call noundef zeroext i1 @_ZN7glslang15HlslTokenStream16acceptTokenClassENS_15EHlslTokenClassE(ptr noundef nonnull align 8 dereferenceable(324) %0, i32 noundef 344) #16
  br i1 %13, label %14, label %25

14:                                               ; preds = %12
  %15 = call noundef zeroext i1 @_ZN7glslang11HlslGrammar27acceptConditionalExpressionERPNS_12TIntermTypedE(ptr noundef nonnull align 8 dereferenceable(360) %0, ptr noundef nonnull align 8 dereferenceable(8) %4)
  %16 = load ptr, ptr %9, align 8
  br i1 %15, label %22, label %17

17:                                               ; preds = %14
  %18 = getelementptr inbounds i8, ptr %0, i64 8
  %19 = load ptr, ptr %16, align 8
  %20 = getelementptr inbounds i8, ptr %19, i64 344
  %21 = load ptr, ptr %20, align 8
  call void (ptr, ptr, ptr, ptr, ptr, ...) %21(ptr noundef nonnull align 8 dereferenceable(1280) %16, ptr noundef nonnull align 8 dereferenceable(24) %18, ptr noundef nonnull @.str, ptr noundef nonnull @.str.42, ptr noundef nonnull @.str.1) #16
  br label %38

22:                                               ; preds = %14
  %23 = load ptr, ptr %8, align 8
  %24 = load ptr, ptr %4, align 8
  call void @_ZN7glslang16HlslParseContext18setLayoutQualifierERKNS_10TSourceLocERNS_10TQualifierERNSt7__cxx1112basic_stringIcSt11char_traitsIcENS_14pool_allocatorIcEEEEPKNS_12TIntermTypedE(ptr noundef nonnull align 8 dereferenceable(2489) %16, ptr noundef nonnull align 8 dereferenceable(24) %3, ptr noundef nonnull align 8 dereferenceable(80) %1, ptr noundef nonnull align 8 dereferenceable(40) %23, ptr noundef %24) #16
  br label %28

25:                                               ; preds = %12
  %26 = load ptr, ptr %9, align 8
  %27 = load ptr, ptr %8, align 8
  call void @_ZN7glslang16HlslParseContext18setLayoutQualifierERKNS_10TSourceLocERNS_10TQualifierERNSt7__cxx1112basic_stringIcSt11char_traitsIcENS_14pool_allocatorIcEEEE(ptr noundef nonnull align 8 dereferenceable(2489) %26, ptr noundef nonnull align 8 dereferenceable(24) %3, ptr noundef nonnull align 8 dereferenceable(80) %1, ptr noundef nonnull align 8 dereferenceable(40) %27) #16
  br label %28

28:                                               ; preds = %25, %22
  %29 = call noundef zeroext i1 @_ZN7glslang15HlslTokenStream16acceptTokenClassENS_15EHlslTokenClassE(ptr noundef nonnull align 8 dereferenceable(324) %0, i32 noundef 362) #16
  br i1 %29, label %10, label %30, !llvm.loop !47

30:                                               ; preds = %28, %10
  %31 = call noundef zeroext i1 @_ZN7glslang15HlslTokenStream16acceptTokenClassENS_15EHlslTokenClassE(ptr noundef nonnull align 8 dereferenceable(324) %0, i32 noundef 356) #16
  br i1 %31, label %38, label %32

32:                                               ; preds = %30
  %33 = load ptr, ptr %9, align 8
  %34 = getelementptr inbounds i8, ptr %0, i64 8
  %35 = load ptr, ptr %33, align 8
  %36 = getelementptr inbounds i8, ptr %35, i64 344
  %37 = load ptr, ptr %36, align 8
  call void (ptr, ptr, ptr, ptr, ptr, ...) %37(ptr noundef nonnull align 8 dereferenceable(1280) %33, ptr noundef nonnull align 8 dereferenceable(24) %34, ptr noundef nonnull @.str, ptr noundef nonnull @.str.43, ptr noundef nonnull @.str.1) #16
  br label %38

38:                                               ; preds = %30, %6, %2, %32, %17
  %.0 = phi i1 [ false, %32 ], [ false, %17 ], [ false, %2 ], [ false, %6 ], [ true, %30 ]
  ret i1 %.0
}